Certificate:
    Data:
        Version: 3 (0x2)
        Serial Number:
            29:c7:03:c7:c6:6f:23:f5:e1:b2:4f:1a:de:5d:19:df:54:b7:d4:b4
        Signature Algorithm: sha256WithRSAEncryption
        Issuer: CN = Testing CA
        Validity
            Not Before: Jan 15 18:27:23 2019 GMT
            Not After : Jan 12 18:27:23 2029 GMT
        Subject: CN = Testing CA
        Subject Public Key Info:
            Public Key Algorithm: rsaEncryption
                RSA Public-Key: (4096 bit)
                Modulus:
                    00:be:d3:dc:c7:17:af:48:e8:7f:18:f2:ec:c7:f7:
                    0c:19:a2:01:c7:49:55:cf:80:e0:e0:98:8c:9f:ec:
                    a5:96:73:7f:28:47:16:b8:1c:5c:cc:09:f1:e5:26:
                    59:a9:80:a5:11:47:4a:45:67:8e:f6:3d:e0:b2:31:
                    f7:0c:80:d9:82:5f:eb:83:da:4e:de:b4:e3:36:c2:
                    f7:af:57:e8:34:91:27:50:ec:20:c7:df:d3:dd:b1:
                    45:00:6a:cb:1d:53:57:8d:b9:8f:1c:33:e0:78:37:
                    fa:e9:9e:19:ef:7d:32:a3:17:c6:b8:6b:45:e5:df:
                    ed:c2:18:6e:02:69:f8:56:c6:4c:18:e8:68:74:cd:
                    cb:7f:8a:a9:f4:3a:3f:ab:76:e9:98:8f:1f:a1:19:
                    e0:90:a2:9e:a5:20:d0:21:2d:ad:0a:45:ca:3a:80:
                    28:bb:75:fc:c5:94:d0:08:76:e0:5a:5a:96:ed:25:
                    73:ff:75:14:67:5e:e3:cc:29:ad:1e:15:4f:3a:43:
                    ce:49:29:d4:63:02:4f:88:01:91:f7:7e:12:f0:8e:
                    a5:11:5f:e5:46:cc:2a:c4:af:42:9a:17:3a:d5:78:
                    ca:fc:6d:77:b6:35:0a:4d:7a:03:01:f1:77:84:87:
                    6e:53:e0:bd:bc:c8:df:ba:e6:f5:f0:91:b5:6a:e3:
                    49:fe:bf:4b:9d:1a:ba:90:31:f4:ff:0b:20:95:a9:
                    13:08:0f:ae:be:81:ab:c1:7a:93:59:51:6a:07:22:
                    ce:06:56:61:6a:c8:c0:5e:74:f9:2b:24:82:b8:a7:
                    de:60:cb:73:c6:16:94:67:ff:29:8f:80:2c:b5:6b:
                    6e:f7:bd:07:d8:cf:15:0c:33:1c:5c:b5:45:08:a8:
                    3c:f1:e8:c2:ea:86:25:49:50:83:cb:af:31:8c:23:
                    fd:52:31:32:20:ef:77:f7:42:c0:59:10:cd:98:aa:
                    bf:bb:55:0b:bf:ee:5d:7c:a1:38:b8:cf:55:e9:b3:
                    ab:26:17:2e:8c:00:15:35:4e:b8:56:bb:4f:f3:11:
                    e9:df:8c:81:0a:52:8b:ab:f7:45:7d:90:99:b6:c4:
                    fa:18:5a:a2:fb:43:26:c5:6c:f3:08:5e:d3:d0:fc:
                    60:58:82:79:fb:7d:63:a8:71:db:79:be:93:d3:d3:
                    d3:2e:4c:1b:bd:9f:40:63:06:68:f8:13:76:85:1c:
                    60:d0:6d:c9:ec:f8:93:41:9e:f0:ae:25:fa:e4:32:
                    69:bd:60:ca:ef:f2:a5:0c:d9:4b:54:8f:e5:e0:83:
                    a7:06:f6:49:13:da:12:19:c0:7f:09:3d:2c:72:38:
                    54:14:79:74:79:c9:e0:c1:6f:c1:5c:ec:ed:47:c0:
                    e0:d9:19
                Exponent: 65537 (0x10001)
        X509v3 extensions:
            X509v3 Subject Key Identifier: 
                59:2A:56:DF:88:89:2E:E0:FA:37:04:90:D5:9E:8C:64:47:52:82:C1
            X509v3 Authority Key Identifier: 
                keyid:59:2A:56:DF:88:89:2E:E0:FA:37:04:90:D5:9E:8C:64:47:52:82:C1

            X509v3 Basic Constraints: critical
                CA:TRUE
    Signature Algorithm: sha256WithRSAEncryption
         6a:29:15:71:f8:72:9d:3c:8a:49:d3:70:b0:1e:26:ab:78:ae:
         bc:0c:b2:45:d4:e0:03:89:be:bc:c9:18:19:9b:ef:db:69:c2:
         df:28:b3:87:85:7b:5f:4c:96:e1:42:b9:67:67:25:a2:2b:56:
         e4:f3:1d:fb:08:f4:ef:9a:4a:b8:cb:3b:c0:e0:4e:d8:31:9b:
         99:b7:be:32:88:35:f7:d0:06:3b:a8:c7:d8:e0:be:e1:df:26:
         62:63:d4:72:11:57:2f:a9:5a:64:f3:87:c7:56:50:c8:92:d6:
         70:e7:d4:19:06:c7:3b:67:2a:7b:24:64:8d:a1:54:ee:47:ee:
         17:3f:a6:2f:cb:52:89:9b:2b:45:b1:ad:6a:82:3d:42:2a:d9:
         52:8e:e4:8d:0a:e7:a9:3c:3b:ea:07:d1:62:5d:79:4e:9c:7c:
         9a:67:ec:89:5c:93:07:a0:e1:bf:d7:46:d4:ac:b7:c6:66:e8:
         3f:86:21:15:3d:3c:78:ad:78:a9:c7:4e:33:74:1b:74:f3:1f:
         78:25:23:4a:e4:14:19:85:ec:66:83:45:16:d4:c3:c8:d7:d1:
         a7:0a:45:c1:39:89:65:ad:ff:02:ec:8a:d7:45:61:a8:1e:fd:
         74:2b:c0:7e:03:73:24:c1:f7:fd:44:13:c1:30:7e:cd:bd:70:
         5f:0a:5e:9a:bd:f8:0b:52:2b:65:39:ea:8f:2f:dd:7e:f4:89:
         1a:84:ae:ad:2e:d6:d7:eb:4a:47:37:45:56:ef:58:80:5b:3d:
         ed:60:3f:16:96:a4:67:f6:33:fd:d9:d8:92:a9:78:69:d9:ba:
         1b:63:a7:38:bb:ac:05:78:f6:3f:ab:83:b9:8e:f5:a2:a6:f8:
         64:f0:60:e9:db:80:b9:c6:9c:a4:d9:15:d5:bc:ca:53:8f:df:
         fb:e5:4e:84:97:58:bc:75:ac:33:fc:2d:65:ae:db:74:52:54:
         6c:93:45:7e:53:f3:4b:99:e2:65:dd:da:f4:d8:9a:9d:fd:1a:
         1c:e0:f9:40:0e:22:48:64:68:86:28:73:29:d4:83:a6:ea:a9:
         ea:a4:e9:c2:55:01:6b:45:9f:c3:dc:da:cd:ef:ed:4c:53:11:
         36:6b:ca:1a:96:c1:e7:96:f0:93:0e:2a:00:df:a0:e4:ef:8f:
         d2:48:14:07:5a:29:7a:1f:2b:c3:69:62:03:e7:d9:36:57:a7:
         83:98:86:ca:7a:ad:a0:b2:0b:03:a4:29:04:e8:49:ea:04:71:
         68:dd:f3:f6:bf:e4:66:2c:95:12:e6:df:d5:76:a0:46:17:06:
         5b:81:91:a8:ab:9d:2c:48:26:79:4a:0e:82:a6:a1:df:c9:2a:
         79:9a:6d:5a:8a:25:aa:12
-----BEGIN CERTIFICATE-----
MIIFCzCCAvOgAwIBAgIUKccDx8ZvI/Xhsk8a3l0Z31S31LQwDQYJKoZIhvcNAQEL
BQAwFTETMBEGA1UEAwwKVGVzdGluZyBDQTAeFw0xOTAxMTUxODI3MjNaFw0yOTAx
MTIxODI3MjNaMBUxEzARBgNVBAMMClRlc3RpbmcgQ0EwggIiMA0GCSqGSIb3DQEB
AQUAA4ICDwAwggIKAoICAQC+09zHF69I6H8Y8uzH9wwZogHHSVXPgODgmIyf7KWW
c38oRxa4HFzMCfHlJlmpgKURR0pFZ472PeCyMfcMgNmCX+uD2k7etOM2wvevV+g0
kSdQ7CDH39PdsUUAassdU1eNuY8cM+B4N/rpnhnvfTKjF8a4a0Xl3+3CGG4CafhW
xkwY6Gh0zct/iqn0Oj+rdumYjx+hGeCQop6lINAhLa0KRco6gCi7dfzFlNAIduBa
WpbtJXP/dRRnXuPMKa0eFU86Q85JKdRjAk+IAZH3fhLwjqURX+VGzCrEr0KaFzrV
eMr8bXe2NQpNegMB8XeEh25T4L28yN+65vXwkbVq40n+v0udGrqQMfT/CyCVqRMI
D66+gavBepNZUWoHIs4GVmFqyMBedPkrJIK4p95gy3PGFpRn/ymPgCy1a273vQfY
zxUMMxxctUUIqDzx6MLqhiVJUIPLrzGMI/1SMTIg73f3QsBZEM2Yqr+7VQu/7l18
oTi4z1Xps6smFy6MABU1TrhWu0/zEenfjIEKUour90V9kJm2xPoYWqL7QybFbPMI
XtPQ/GBYgnn7fWOocdt5vpPT09MuTBu9n0BjBmj4E3aFHGDQbcns+JNBnvCuJfrk
Mmm9YMrv8qUM2UtUj+Xgg6cG9kkT2hIZwH8JPSxyOFQUeXR5yeDBb8Fc7O1HwODZ
GQIDAQABo1MwUTAdBgNVHQ4EFgQUWSpW34iJLuD6NwSQ1Z6MZEdSgsEwHwYDVR0j
BBgwFoAUWSpW34iJLuD6NwSQ1Z6MZEdSgsEwDwYDVR0TAQH/BAUwAwEB/zANBgkq
hkiG9w0BAQsFAAOCAgEAaikVcfhynTyKSdNwsB4mq3iuvAyyRdTgA4m+vMkYGZvv
22nC3yizh4V7X0yW4UK5Z2cloitW5PMd+wj075pKuMs7wOBO2DGbmbe+Mog199AG
O6jH2OC+4d8mYmPUchFXL6laZPOHx1ZQyJLWcOfUGQbHO2cqeyRkjaFU7kfuFz+m
L8tSiZsrRbGtaoI9QirZUo7kjQrnqTw76gfRYl15Tpx8mmfsiVyTB6Dhv9dG1Ky3
xmboP4YhFT08eK14qcdOM3QbdPMfeCUjSuQUGYXsZoNFFtTDyNfRpwpFwTmJZa3/
AuyK10VhqB79dCvAfgNzJMH3/UQTwTB+zb1wXwpemr34C1IrZTnqjy/dfvSJGoSu
rS7W1+tKRzdFVu9YgFs97WA/FpakZ/Yz/dnYkql4adm6G2OnOLusBXj2P6uDuY71
oqb4ZPBg6duAucacpNkV1bzKU4/f++VOhJdYvHWsM/wtZa7bdFJUbJNFflPzS5ni
Zd3a9Nianf0aHOD5QA4iSGRohihzKdSDpuqp6qTpwlUBa0Wfw9zaze/tTFMRNmvK
GpbB55bwkw4qAN+g5O+P0kgUB1opeh8rw2liA+fZNleng5iGynqtoLILA6QpBOhJ
6gRxaN3z9r/kZiyVEubf1XagRhcGW4GRqKudLEgmeUoOgqah38kqeZptWoolqhI=
-----END CERTIFICATE-----
