Certificate:
    Data:
        Version: 3 (0x2)
        Serial Number:
            7e:e8:8c:0f:bb:eb:f3:c4:ac:eb:60:fc:8a:f9:cf:b0:1b:d6:93:05
        Signature Algorithm: sha256WithRSAEncryption
        Issuer: CN = Testing CA
        Validity
            Not Before: Sep 23 16:14:31 2021 GMT
            Not After : Sep 21 16:14:31 2031 GMT
        Subject: CN = Testing certificate for SWID tag signing
        Subject Public Key Info:
            Public Key Algorithm: rsaEncryption
                Public-Key: (4096 bit)
                Modulus:
                    00:92:65:9f:36:60:c5:71:47:5d:6c:fe:d2:30:ff:
                    b2:35:17:5b:a5:7c:d3:78:50:09:2c:11:89:01:ef:
                    7e:4b:2a:79:01:30:3e:4b:db:3a:e9:8c:18:5c:c2:
                    73:df:28:eb:76:c2:b3:a6:9a:51:bc:99:f0:37:c1:
                    44:6d:63:2d:d6:2e:1a:ca:8b:e4:b1:d2:ce:c3:8e:
                    45:3d:b0:71:71:a8:62:6b:1a:05:fa:fa:d8:cc:4f:
                    6f:65:be:e8:e4:47:1a:a4:a2:0f:11:34:7f:b0:8e:
                    5a:77:2e:71:7d:7a:52:fb:a6:76:f9:aa:b1:c6:a1:
                    c3:e2:47:56:e9:ec:a2:c5:53:ab:69:9b:d2:c8:6f:
                    a8:d2:8f:9d:03:29:c7:55:8a:0e:6a:57:88:55:a5:
                    35:21:cb:9f:56:42:a9:49:d4:29:ad:80:71:dd:16:
                    9b:c8:b0:bc:a0:9d:b3:2f:59:d3:31:7a:46:a5:60:
                    9f:45:3f:2b:91:74:f7:0a:65:03:20:74:09:24:46:
                    0b:3d:27:d6:b1:e7:c0:24:22:e6:50:97:fc:36:23:
                    d8:95:a5:79:8b:e6:de:65:09:3d:9d:2d:8f:0e:9b:
                    a4:94:64:b6:87:7c:8d:7e:38:03:cf:83:81:d1:0d:
                    2a:31:d6:ff:c8:f5:4c:fe:72:a1:93:72:d4:72:ad:
                    c9:99:e0:fd:31:8b:37:11:49:d9:56:cf:65:32:ca:
                    b7:3a:60:c4:d9:40:d3:2f:3d:22:2c:96:d9:74:46:
                    78:07:a5:74:ff:bf:d9:09:32:ac:c6:53:fd:39:79:
                    95:26:1e:cb:c4:2a:4e:5d:06:3c:e7:6a:ce:9c:14:
                    72:cd:9f:9a:06:d9:96:a3:c6:0f:1a:b9:86:59:e9:
                    f4:39:73:f8:a3:33:01:42:25:64:07:f8:af:32:e5:
                    12:1d:8b:1d:10:63:72:03:c1:3e:bc:87:20:af:71:
                    ca:d3:40:40:45:7d:4a:17:ff:d8:cc:98:31:c2:1f:
                    c6:ea:e8:e4:a2:b9:15:cf:df:d1:f9:ba:13:75:31:
                    a7:6a:a9:f8:07:e9:42:a0:6c:81:50:b0:91:db:44:
                    af:19:7c:82:1e:b5:be:45:bf:30:ea:18:b2:d8:83:
                    3a:8a:c1:af:16:f4:70:ef:ed:f3:3b:da:56:8a:d1:
                    5e:63:2a:c2:e7:cc:49:60:1a:b8:01:7f:43:1c:dd:
                    1b:47:7a:bc:e4:da:f6:de:f8:76:5a:4b:10:80:af:
                    df:c0:42:05:7b:3a:64:20:5c:df:43:ea:20:ae:d6:
                    22:84:93:6f:6f:be:55:ae:a3:b9:7c:59:b7:18:0a:
                    e3:f7:07:74:48:c3:6f:6a:8a:49:6d:0f:a3:7b:71:
                    84:ca:05
                Exponent: 65537 (0x10001)
        X509v3 extensions:
            X509v3 Subject Key Identifier: 
                2F:BD:E1:D1:04:B0:A3:5E:45:63:64:AC:6C:C3:50:17:FF:F3:2B:87
            X509v3 Authority Key Identifier: 
                CD:39:58:C3:EA:F5:AA:1F:34:FD:F3:13:5D:E7:67:51:1B:27:E5:5F
            X509v3 Basic Constraints: critical
                CA:FALSE
            X509v3 Key Usage: critical
                Digital Signature
            X509v3 Extended Key Usage: critical
                Code Signing
    Signature Algorithm: sha256WithRSAEncryption
    Signature Value:
        18:9c:da:73:d5:e8:45:f3:87:59:e6:2f:a5:ff:b3:75:29:96:
        c4:c8:32:64:e2:9e:44:6a:1f:48:db:3d:63:5e:65:18:03:55:
        20:22:f1:4e:c5:aa:77:59:0e:53:e9:aa:81:81:7f:ab:28:26:
        95:40:46:e0:ae:f7:13:64:75:1b:2c:c0:d5:54:37:7e:f4:7c:
        a0:21:42:33:b8:f1:e3:d4:d4:4a:7d:bf:c3:4a:ab:27:50:be:
        31:ab:fe:79:89:87:6b:42:95:ce:4c:f2:cb:27:52:60:9f:fc:
        1c:19:03:20:77:36:76:bd:3a:f9:33:0a:aa:c3:9a:28:a3:ae:
        17:71:16:2f:a6:fa:bf:27:8f:4a:f1:dc:5c:d2:ec:64:e9:93:
        d9:fc:2c:23:70:5d:44:79:f1:f4:c2:22:1e:a9:72:5f:75:6c:
        65:79:28:88:45:f0:73:2b:ec:43:3f:15:d1:bf:f2:9f:16:06:
        6d:d6:15:56:95:fa:c9:08:77:d6:e4:d1:8d:38:e4:c6:5b:e8:
        dc:c0:fd:d7:9e:cc:da:9d:af:b0:8f:bc:95:22:bc:3e:b3:4a:
        1c:54:81:78:2f:a2:8c:c8:11:46:f3:d3:0d:3a:09:6d:b5:0b:
        1f:c0:33:92:e7:eb:39:26:bb:ea:b3:cd:cd:53:ff:33:a5:87:
        c2:51:15:ed:29:c7:8d:23:03:01:ae:eb:6c:f2:9d:8c:d1:7d:
        38:e1:9d:b0:d5:45:f6:01:d7:76:6d:28:c7:cc:01:10:7e:e1:
        04:d5:4b:ac:0e:37:83:64:5c:b6:05:d3:3f:fa:c5:fa:ff:4c:
        49:53:39:ba:a4:72:40:bf:53:46:1a:20:b4:2a:88:cf:17:fd:
        4c:4a:fd:c7:fe:8e:e5:64:2e:85:48:ea:25:e6:99:7b:30:e2:
        67:94:f6:05:17:91:6d:21:dd:ec:f1:3b:ca:7b:a2:33:9c:c3:
        d6:ad:e7:05:01:78:13:68:c4:38:f5:de:0e:ae:d8:d6:8b:2b:
        7c:70:06:3c:af:6d:84:0e:6a:b3:2b:8c:c3:25:60:39:41:74:
        e8:0b:66:58:4c:3c:47:10:74:e8:27:82:22:10:33:3b:fe:ff:
        b7:a6:14:bb:34:cc:c3:c8:13:59:d9:c5:34:7d:ea:10:65:45:
        2f:ac:81:c9:26:fc:05:93:1e:df:93:28:3a:2f:ea:e7:5e:e8:
        32:29:3c:14:63:b9:71:5e:95:02:95:84:a4:aa:3a:6a:2c:94:
        94:bd:3c:2f:5e:8a:25:32:da:15:5c:23:3a:6c:e9:63:e7:e3:
        29:ec:80:43:86:a3:18:bd:ba:8a:82:25:5b:c5:7e:69:aa:a9:
        d8:e3:a1:6a:60:c0:15:a9
-----BEGIN CERTIFICATE-----
MIIFTjCCAzagAwIBAgIUfuiMD7vr88Ss62D8ivnPsBvWkwUwDQYJKoZIhvcNAQEL
BQAwFTETMBEGA1UEAwwKVGVzdGluZyBDQTAeFw0yMTA5MjMxNjE0MzFaFw0zMTA5
MjExNjE0MzFaMDMxMTAvBgNVBAMMKFRlc3RpbmcgY2VydGlmaWNhdGUgZm9yIFNX
SUQgdGFnIHNpZ25pbmcwggIiMA0GCSqGSIb3DQEBAQUAA4ICDwAwggIKAoICAQCS
ZZ82YMVxR11s/tIw/7I1F1ulfNN4UAksEYkB735LKnkBMD5L2zrpjBhcwnPfKOt2
wrOmmlG8mfA3wURtYy3WLhrKi+Sx0s7DjkU9sHFxqGJrGgX6+tjMT29lvujkRxqk
og8RNH+wjlp3LnF9elL7pnb5qrHGocPiR1bp7KLFU6tpm9LIb6jSj50DKcdVig5q
V4hVpTUhy59WQqlJ1CmtgHHdFpvIsLygnbMvWdMxekalYJ9FPyuRdPcKZQMgdAkk
Rgs9J9ax58AkIuZQl/w2I9iVpXmL5t5lCT2dLY8Om6SUZLaHfI1+OAPPg4HRDSox
1v/I9Uz+cqGTctRyrcmZ4P0xizcRSdlWz2Uyyrc6YMTZQNMvPSIsltl0RngHpXT/
v9kJMqzGU/05eZUmHsvEKk5dBjznas6cFHLNn5oG2Zajxg8auYZZ6fQ5c/ijMwFC
JWQH+K8y5RIdix0QY3IDwT68hyCvccrTQEBFfUoX/9jMmDHCH8bq6OSiuRXP39H5
uhN1MadqqfgH6UKgbIFQsJHbRK8ZfIIetb5FvzDqGLLYgzqKwa8W9HDv7fM72laK
0V5jKsLnzElgGrgBf0Mc3RtHerzk2vbe+HZaSxCAr9/AQgV7OmQgXN9D6iCu1iKE
k29vvlWuo7l8WbcYCuP3B3RIw29qikltD6N7cYTKBQIDAQABo3gwdjAdBgNVHQ4E
FgQUL73h0QSwo15FY2SsbMNQF//zK4cwHwYDVR0jBBgwFoAUzTlYw+r1qh80/fMT
XednURsn5V8wDAYDVR0TAQH/BAIwADAOBgNVHQ8BAf8EBAMCB4AwFgYDVR0lAQH/
BAwwCgYIKwYBBQUHAwMwDQYJKoZIhvcNAQELBQADggIBABic2nPV6EXzh1nmL6X/
s3UplsTIMmTinkRqH0jbPWNeZRgDVSAi8U7FqndZDlPpqoGBf6soJpVARuCu9xNk
dRsswNVUN370fKAhQjO48ePU1Ep9v8NKqydQvjGr/nmJh2tClc5M8ssnUmCf/BwZ
AyB3Nna9OvkzCqrDmiijrhdxFi+m+r8nj0rx3FzS7GTpk9n8LCNwXUR58fTCIh6p
cl91bGV5KIhF8HMr7EM/FdG/8p8WBm3WFVaV+skId9bk0Y045MZb6NzA/deezNqd
r7CPvJUivD6zShxUgXgvoozIEUbz0w06CW21Cx/AM5Ln6zkmu+qzzc1T/zOlh8JR
Fe0px40jAwGu62zynYzRfTjhnbDVRfYB13ZtKMfMARB+4QTVS6wON4NkXLYF0z/6
xfr/TElTObqkckC/U0YaILQqiM8X/UxK/cf+juVkLoVI6iXmmXsw4meU9gUXkW0h
3ezxO8p7ojOcw9at5wUBeBNoxDj13g6u2NaLK3xwBjyvbYQOarMrjMMlYDlBdOgL
ZlhMPEcQdOgngiIQMzv+/7emFLs0zMPIE1nZxTR96hBlRS+sgckm/AWTHt+TKDov
6ude6DIpPBRjuXFelQKVhKSqOmoslJS9PC9eiiUy2hVcIzps6WPn4ynsgEOGoxi9
uoqCJVvFfmmqqdjjoWpgwBWp
-----END CERTIFICATE-----
