Certificate:
    Data:
        Version: 3 (0x2)
        Serial Number:
            51:c8:89:8d:59:f7:9b:f1:48:5c:4a:e7:04:86:b5:6d:38:d1:bd:3a
        Signature Algorithm: sha256WithRSAEncryption
        Issuer: CN = Testing CA
        Validity
            Not Before: Sep 23 16:14:28 2021 GMT
            Not After : Sep 21 16:14:28 2031 GMT
        Subject: CN = Testing CA
        Subject Public Key Info:
            Public Key Algorithm: rsaEncryption
                Public-Key: (4096 bit)
                Modulus:
                    00:ad:26:a3:7c:f4:f8:6a:b4:eb:b1:1c:60:03:e3:
                    ef:b4:44:e6:df:8e:8f:9c:6b:87:0e:ab:55:41:f1:
                    80:67:f2:2e:7d:c0:01:d5:be:24:d7:c2:a0:dd:f9:
                    f3:8f:4a:7b:fd:fc:da:5d:e7:c0:c7:f9:ed:3c:e0:
                    5d:01:66:5f:ad:cc:79:a8:9b:84:54:93:3f:c1:fc:
                    7a:49:34:ae:e8:1d:c0:b0:a7:39:f4:7b:ad:e4:c5:
                    c5:a9:38:66:f0:64:47:9c:58:54:b1:54:a3:97:b4:
                    a7:bf:a6:fa:cf:a6:4e:aa:34:75:2c:ed:ca:f4:b7:
                    a2:cf:b6:d1:51:18:4d:34:8d:6d:df:b4:14:17:3b:
                    b7:6a:f7:d8:2a:fa:50:96:9a:c1:df:58:15:a1:38:
                    26:59:ee:9e:d7:76:0f:7a:e4:c2:fc:c0:4e:28:d0:
                    e1:89:2b:74:c8:7a:7b:c6:1a:0b:2a:ec:60:7e:9a:
                    78:1f:1d:b4:b5:73:31:bb:07:41:e9:f6:1e:c2:d3:
                    1e:17:e4:a2:50:29:c1:39:16:67:6f:48:a1:f1:29:
                    ff:85:7e:55:e2:32:70:bc:fe:73:c3:d9:3c:65:42:
                    73:41:8f:13:8c:89:06:15:af:01:b4:2d:3a:9a:1f:
                    15:66:ae:33:04:17:47:53:50:a6:2a:07:3c:cb:df:
                    2a:4e:07:82:f0:7c:3b:26:40:76:ab:28:b2:5a:35:
                    e5:70:03:48:98:f9:eb:ac:be:06:44:70:05:8c:4c:
                    0d:6f:ce:01:46:bb:c1:7e:5a:af:55:fd:3a:8d:66:
                    bd:5e:3a:f4:21:13:40:b4:cd:a2:6e:d7:7c:df:df:
                    d6:1d:85:d7:e1:ab:b6:78:42:b9:9d:12:03:83:df:
                    81:37:44:4d:65:f8:f4:03:1d:46:6c:f4:af:3a:6d:
                    8a:a6:27:42:b6:1f:74:9c:dd:da:2d:8f:b3:c9:aa:
                    95:38:58:a5:ca:8b:4d:eb:e0:5d:7c:c8:ea:c4:ec:
                    c5:e6:bb:40:6e:10:7c:c6:51:dc:8c:c6:24:9a:27:
                    9a:2d:fe:cb:49:e4:bc:40:e0:d6:af:b1:01:f7:3b:
                    42:24:17:85:e8:9d:1f:93:f7:36:fe:f2:d5:71:88:
                    f8:cf:42:2a:69:3f:c8:62:c0:f7:2f:0e:e1:65:9c:
                    b9:71:cb:08:c0:3c:98:e2:c4:0e:db:c6:f5:d4:a4:
                    ee:6d:04:68:ca:bf:35:44:00:95:57:e7:27:52:94:
                    d2:84:13:7f:8b:4c:5e:14:90:e2:b3:c3:90:57:32:
                    98:fe:52:83:b9:e1:f5:91:b4:cc:6e:67:90:8d:63:
                    06:68:fc:0f:09:e7:ec:f1:d7:94:8c:33:7b:b9:17:
                    01:5f:55
                Exponent: 65537 (0x10001)
        X509v3 extensions:
            X509v3 Subject Key Identifier: 
                CD:39:58:C3:EA:F5:AA:1F:34:FD:F3:13:5D:E7:67:51:1B:27:E5:5F
            X509v3 Authority Key Identifier: 
                CD:39:58:C3:EA:F5:AA:1F:34:FD:F3:13:5D:E7:67:51:1B:27:E5:5F
            X509v3 Basic Constraints: critical
                CA:TRUE
    Signature Algorithm: sha256WithRSAEncryption
    Signature Value:
        1d:8c:5b:b5:c6:49:5f:f5:1b:5f:50:8f:45:22:91:79:4e:83:
        f7:cf:b5:55:61:be:a2:20:55:bc:64:21:49:f5:6a:ac:65:f2:
        32:4c:47:34:d1:a4:53:35:af:bf:b0:64:6f:61:a6:bb:c8:54:
        e6:68:29:ee:6a:e8:cd:13:6a:4c:8f:e3:33:93:33:69:4a:6f:
        fb:5f:16:41:38:d6:c5:a7:57:65:54:e1:ca:29:b9:5c:8d:5e:
        f7:62:99:df:c6:e3:30:f4:95:f2:e5:1a:8d:38:10:e8:62:a3:
        81:e6:d1:cc:a1:00:a2:04:da:f2:49:10:99:71:a2:56:88:f9:
        92:cb:d5:47:99:d2:cc:dd:19:3e:4d:8e:da:05:7f:e5:06:be:
        8f:7b:8a:85:90:2e:c2:ce:b3:4e:60:be:a2:07:e6:a1:6b:77:
        6e:4b:36:04:c6:e5:67:2a:9e:86:38:ec:f7:20:ee:28:e2:a5:
        13:21:97:a2:0e:dd:88:b4:15:0e:cb:c5:80:bb:4a:5f:f0:31:
        65:fa:cc:d2:19:22:c8:7d:fb:dd:a9:06:c7:9f:8d:d5:c5:4f:
        6c:eb:ed:fb:c1:b3:7c:86:5e:97:3d:6d:1d:1e:7a:63:70:77:
        52:95:06:64:2f:58:a1:c8:22:cf:28:d3:10:69:a9:25:50:87:
        c3:dc:9e:75:2f:ea:d4:9b:3f:75:ca:02:36:14:31:c0:02:92:
        07:41:94:5e:cd:0b:cc:10:7a:1e:e9:a5:50:f5:42:aa:dd:e9:
        ce:7c:9e:3a:7e:cd:f5:fd:c8:e7:b5:75:60:a2:e3:00:e7:2f:
        ad:63:27:a5:4f:bd:b6:52:cc:ce:62:cd:b2:12:c6:7a:55:16:
        0b:31:ba:92:ad:6b:f3:26:d3:4a:8c:d9:48:36:e9:55:e7:81:
        8b:b4:9e:3d:b1:2a:24:73:df:21:a7:e3:64:8d:68:e5:2a:77:
        bb:f2:da:cd:3a:94:37:01:f5:9e:29:e2:54:1c:d0:27:af:de:
        35:39:2b:83:2d:5f:a4:95:f4:94:ee:9b:45:29:b8:ec:43:23:
        69:9a:47:9f:87:17:75:5c:9d:0a:b1:a4:99:b2:35:35:bb:2a:
        d7:06:a5:08:36:12:ac:26:d4:9e:c5:19:40:cd:0e:43:ae:ce:
        34:c0:a0:4c:49:db:b0:de:70:44:b9:81:5a:e9:a3:75:e6:69:
        78:4a:83:ae:ad:54:35:a4:27:7e:15:14:7f:74:2c:38:85:66:
        49:59:4c:2c:55:ee:22:65:74:0f:5a:56:ce:d1:b3:cb:fc:4c:
        83:3a:d4:44:1a:d4:fd:43:0d:e0:a6:f0:03:b9:e1:b7:a0:63:
        96:80:54:7f:0a:cd:8d:c2
-----BEGIN CERTIFICATE-----
MIIFCzCCAvOgAwIBAgIUUciJjVn3m/FIXErnBIa1bTjRvTowDQYJKoZIhvcNAQEL
BQAwFTETMBEGA1UEAwwKVGVzdGluZyBDQTAeFw0yMTA5MjMxNjE0MjhaFw0zMTA5
MjExNjE0MjhaMBUxEzARBgNVBAMMClRlc3RpbmcgQ0EwggIiMA0GCSqGSIb3DQEB
AQUAA4ICDwAwggIKAoICAQCtJqN89PhqtOuxHGAD4++0RObfjo+ca4cOq1VB8YBn
8i59wAHVviTXwqDd+fOPSnv9/Npd58DH+e084F0BZl+tzHmom4RUkz/B/HpJNK7o
HcCwpzn0e63kxcWpOGbwZEecWFSxVKOXtKe/pvrPpk6qNHUs7cr0t6LPttFRGE00
jW3ftBQXO7dq99gq+lCWmsHfWBWhOCZZ7p7Xdg965ML8wE4o0OGJK3TIenvGGgsq
7GB+mngfHbS1czG7B0Hp9h7C0x4X5KJQKcE5FmdvSKHxKf+FflXiMnC8/nPD2Txl
QnNBjxOMiQYVrwG0LTqaHxVmrjMEF0dTUKYqBzzL3ypOB4LwfDsmQHarKLJaNeVw
A0iY+eusvgZEcAWMTA1vzgFGu8F+Wq9V/TqNZr1eOvQhE0C0zaJu13zf39Ydhdfh
q7Z4QrmdEgOD34E3RE1l+PQDHUZs9K86bYqmJ0K2H3Sc3dotj7PJqpU4WKXKi03r
4F18yOrE7MXmu0BuEHzGUdyMxiSaJ5ot/stJ5LxA4NavsQH3O0IkF4XonR+T9zb+
8tVxiPjPQippP8hiwPcvDuFlnLlxywjAPJjixA7bxvXUpO5tBGjKvzVEAJVX5ydS
lNKEE3+LTF4UkOKzw5BXMpj+UoO54fWRtMxuZ5CNYwZo/A8J5+zx15SMM3u5FwFf
VQIDAQABo1MwUTAdBgNVHQ4EFgQUzTlYw+r1qh80/fMTXednURsn5V8wHwYDVR0j
BBgwFoAUzTlYw+r1qh80/fMTXednURsn5V8wDwYDVR0TAQH/BAUwAwEB/zANBgkq
hkiG9w0BAQsFAAOCAgEAHYxbtcZJX/UbX1CPRSKReU6D98+1VWG+oiBVvGQhSfVq
rGXyMkxHNNGkUzWvv7Bkb2Gmu8hU5mgp7mrozRNqTI/jM5MzaUpv+18WQTjWxadX
ZVThyim5XI1e92KZ38bjMPSV8uUajTgQ6GKjgebRzKEAogTa8kkQmXGiVoj5ksvV
R5nSzN0ZPk2O2gV/5Qa+j3uKhZAuws6zTmC+ogfmoWt3bks2BMblZyqehjjs9yDu
KOKlEyGXog7diLQVDsvFgLtKX/AxZfrM0hkiyH373akGx5+N1cVPbOvt+8GzfIZe
lz1tHR56Y3B3UpUGZC9YocgizyjTEGmpJVCHw9yedS/q1Js/dcoCNhQxwAKSB0GU
Xs0LzBB6HumlUPVCqt3pznyeOn7N9f3I57V1YKLjAOcvrWMnpU+9tlLMzmLNshLG
elUWCzG6kq1r8ybTSozZSDbpVeeBi7SePbEqJHPfIafjZI1o5Sp3u/LazTqUNwH1
niniVBzQJ6/eNTkrgy1fpJX0lO6bRSm47EMjaZpHn4cXdVydCrGkmbI1Nbsq1wal
CDYSrCbUnsUZQM0OQ67ONMCgTEnbsN5wRLmBWumjdeZpeEqDrq1UNaQnfhUUf3Qs
OIVmSVlMLFXuImV0D1pWztGzy/xMgzrURBrU/UMN4KbwA7nht6BjloBUfwrNjcI=
-----END CERTIFICATE-----
