Certificate:
    Data:
        Version: 3 (0x2)
        Serial Number:
            26:92:c5:ab:fc:e1:c2:f5:7a:28:f7:63:2f:28:0e:89:52:de:20:39
        Signature Algorithm: sha256WithRSAEncryption
        Issuer: CN = Other Testing CA
        Validity
            Not Before: Feb 27 10:02:29 2019 GMT
            Not After : Feb 24 10:02:29 2029 GMT
        Subject: CN = Other testing certificate for SWID tag signing
        Subject Public Key Info:
            Public Key Algorithm: rsaEncryption
                RSA Public-Key: (4096 bit)
                Modulus:
                    00:d2:c5:a3:be:32:57:5c:7b:70:62:26:76:c9:8a:
                    d8:ed:23:f0:14:1c:f7:89:fe:18:30:82:86:c9:46:
                    79:59:66:54:a5:4a:dc:86:97:a5:52:94:35:23:d6:
                    9e:af:6a:14:a1:7a:a0:84:5e:fc:74:52:8b:90:50:
                    9f:21:4f:d0:78:09:a0:1b:68:f3:30:54:2b:52:73:
                    00:92:57:c8:ac:f8:49:66:57:0b:c1:07:a0:54:a7:
                    65:45:47:55:4a:e5:7b:ea:2f:51:e2:b8:76:bf:3a:
                    ce:6e:25:30:3e:63:44:3d:9b:b8:34:1c:09:1a:47:
                    bc:54:41:1e:25:58:4f:83:d2:e6:94:c2:2a:17:9c:
                    6a:42:a0:e5:b3:b1:7b:90:fc:5f:6e:48:1a:89:7c:
                    66:76:78:b6:6a:e1:5d:f0:b3:a6:02:33:48:1d:68:
                    5f:fa:67:8c:7b:50:de:f7:6d:ff:b6:03:15:34:38:
                    20:b8:e4:b2:7e:3f:fe:fd:fe:67:9c:2b:7c:92:f0:
                    8a:c4:d0:68:7c:85:44:8e:df:3f:36:6a:cd:65:8b:
                    b9:1b:bf:dd:6c:bc:ca:4c:4f:7a:5f:63:8e:5f:a6:
                    05:a0:51:e0:5b:33:51:18:0d:67:27:5a:b9:fe:7c:
                    8e:82:dc:12:2d:53:1d:57:48:94:dc:34:4f:7a:63:
                    81:36:59:ee:7c:30:21:16:3f:17:b1:c3:1a:12:f1:
                    27:02:d5:71:97:9e:3c:fd:a0:36:b5:a7:46:3b:cd:
                    8b:d6:3d:c1:d6:a1:d8:76:ed:8b:d5:60:b5:48:08:
                    36:cf:31:24:03:af:12:3d:4c:f3:28:1b:13:23:92:
                    1d:d4:47:a6:51:d3:42:36:f3:e0:01:a0:68:96:2f:
                    1d:0a:89:62:ff:5d:90:49:08:b5:dd:1a:7f:e5:96:
                    5a:95:b0:b1:f4:6a:7a:75:d5:ca:46:0a:3a:a3:05:
                    8b:27:e5:8f:b8:ab:e5:99:32:09:1d:87:a8:49:05:
                    f0:a5:e9:d5:d4:80:38:80:1a:b9:34:2c:f4:e7:d1:
                    37:3c:aa:3e:ac:80:5d:5e:8d:d3:22:67:23:26:7d:
                    1d:c0:89:d8:42:9e:90:f4:bd:fe:da:bf:a9:94:18:
                    82:93:56:d4:3b:d0:ee:cd:41:2b:d6:4b:7c:d9:cf:
                    e7:05:b7:48:30:90:f5:fd:df:10:46:e7:0d:e4:4a:
                    ca:82:5a:e4:af:3c:6b:03:71:28:4f:aa:d7:77:d1:
                    0a:23:ca:bb:9b:fa:93:27:ab:3d:b2:28:c4:84:f9:
                    d3:72:0c:08:04:b7:8a:7f:c3:d8:87:ed:32:02:e2:
                    8e:ad:fd:2f:05:50:be:25:4a:37:ce:14:e9:8b:80:
                    20:31:df
                Exponent: 65537 (0x10001)
        X509v3 extensions:
            X509v3 Subject Key Identifier: 
                2F:72:54:95:09:FE:8D:8D:8B:90:ED:FA:75:AB:3F:F2:3A:38:1A:E7
            X509v3 Authority Key Identifier: 
                keyid:0A:01:67:BF:DE:4F:64:65:BC:F1:57:88:99:1E:EA:E0:BE:B1:DD:D0

            X509v3 Basic Constraints: critical
                CA:FALSE
            X509v3 Key Usage: critical
                Digital Signature
            X509v3 Extended Key Usage: critical
                Code Signing
    Signature Algorithm: sha256WithRSAEncryption
         85:5d:52:4b:9d:1d:43:ad:49:b3:78:0d:75:e9:d5:34:07:f0:
         d5:25:3a:55:cd:a1:7a:10:e7:ad:da:22:99:a7:d3:4d:5e:cf:
         0c:3a:0b:f0:c8:f5:9c:3b:d5:2f:a2:c5:46:4f:66:95:d7:8a:
         a8:50:97:48:29:e8:c8:62:23:d4:da:9e:ad:06:e2:b5:12:bd:
         6f:70:cf:b0:d9:96:b1:0d:f4:45:90:58:c0:0b:71:29:69:62:
         4c:8b:ad:67:76:9a:28:77:d3:99:48:d3:fb:97:36:fc:9f:00:
         c7:a4:19:21:8c:6c:82:62:0d:d0:73:68:a1:9a:cf:76:82:9e:
         7a:7f:48:b0:70:a9:98:4a:3a:42:96:61:6a:9b:d1:47:7d:0d:
         74:0a:19:ff:db:08:48:79:f9:70:0a:35:3f:c1:95:70:32:11:
         1c:bc:63:50:fa:a3:4f:0a:52:2b:a6:95:66:fb:6d:05:67:c9:
         a1:e9:14:5b:a0:d1:01:30:8a:7b:e5:f3:b5:fa:62:f5:44:d2:
         3c:04:f9:c8:6c:e4:0b:91:41:0a:df:a1:76:c1:f0:0d:5b:42:
         10:f5:82:62:be:1d:59:41:36:ed:8e:81:fd:bb:e1:4c:70:53:
         87:51:13:57:7a:d8:17:09:c1:20:e4:22:dc:4d:67:31:91:01:
         9d:f0:98:b8:a8:06:92:db:c1:cb:53:34:e0:1a:e7:03:20:50:
         05:ae:09:0f:c2:0b:be:96:49:30:55:d6:7a:0f:94:b6:86:77:
         cc:58:d6:f0:e9:be:56:d6:5c:0b:fe:76:41:1a:d0:e5:f1:83:
         6f:ca:b3:c2:6f:73:cc:f5:04:c2:75:2a:1a:ca:bd:1a:0e:bf:
         6b:7d:1f:5d:08:5f:34:4b:32:28:e3:67:d3:f2:a9:ce:96:ca:
         19:17:14:7f:36:79:f4:35:8e:19:35:ab:e0:9b:e4:6b:a4:47:
         41:24:a1:20:0f:35:84:e1:1e:a1:bc:2f:88:c5:26:04:7d:75:
         e3:3c:68:3a:68:9a:aa:25:cd:70:35:ce:99:2e:1f:fc:82:72:
         ed:92:82:27:53:d6:dd:75:9c:47:75:56:52:d8:cc:93:e5:04:
         85:1f:fe:a0:c1:5e:3b:2f:0e:b8:00:48:ed:1a:8e:5d:17:33:
         49:c4:aa:12:25:b3:d2:51:eb:fe:4d:46:f4:ff:94:ef:69:13:
         29:e9:b6:45:c3:1a:85:09:27:15:99:2a:cf:4b:fb:ab:f5:6d:
         1b:48:d1:0d:17:3d:89:f1:f4:eb:29:93:01:3d:31:b1:d7:18:
         64:61:ed:fd:55:16:70:7a:c6:ba:77:ea:c2:9d:c0:05:96:a0:
         b9:55:a2:d1:20:21:b6:04
-----BEGIN CERTIFICATE-----
MIIFWjCCA0KgAwIBAgIUJpLFq/zhwvV6KPdjLygOiVLeIDkwDQYJKoZIhvcNAQEL
BQAwGzEZMBcGA1UEAwwQT3RoZXIgVGVzdGluZyBDQTAeFw0xOTAyMjcxMDAyMjla
Fw0yOTAyMjQxMDAyMjlaMDkxNzA1BgNVBAMMLk90aGVyIHRlc3RpbmcgY2VydGlm
aWNhdGUgZm9yIFNXSUQgdGFnIHNpZ25pbmcwggIiMA0GCSqGSIb3DQEBAQUAA4IC
DwAwggIKAoICAQDSxaO+Mldce3BiJnbJitjtI/AUHPeJ/hgwgobJRnlZZlSlStyG
l6VSlDUj1p6vahSheqCEXvx0UouQUJ8hT9B4CaAbaPMwVCtScwCSV8is+ElmVwvB
B6BUp2VFR1VK5XvqL1HiuHa/Os5uJTA+Y0Q9m7g0HAkaR7xUQR4lWE+D0uaUwioX
nGpCoOWzsXuQ/F9uSBqJfGZ2eLZq4V3ws6YCM0gdaF/6Z4x7UN73bf+2AxU0OCC4
5LJ+P/79/mecK3yS8IrE0Gh8hUSO3z82as1li7kbv91svMpMT3pfY45fpgWgUeBb
M1EYDWcnWrn+fI6C3BItUx1XSJTcNE96Y4E2We58MCEWPxexwxoS8ScC1XGXnjz9
oDa1p0Y7zYvWPcHWodh27YvVYLVICDbPMSQDrxI9TPMoGxMjkh3UR6ZR00I28+AB
oGiWLx0KiWL/XZBJCLXdGn/lllqVsLH0anp11cpGCjqjBYsn5Y+4q+WZMgkdh6hJ
BfCl6dXUgDiAGrk0LPTn0Tc8qj6sgF1ejdMiZyMmfR3AidhCnpD0vf7av6mUGIKT
VtQ70O7NQSvWS3zZz+cFt0gwkPX93xBG5w3kSsqCWuSvPGsDcShPqtd30Qojyrub
+pMnqz2yKMSE+dNyDAgEt4p/w9iH7TIC4o6t/S8FUL4lSjfOFOmLgCAx3wIDAQAB
o3gwdjAdBgNVHQ4EFgQUL3JUlQn+jY2LkO36das/8jo4GucwHwYDVR0jBBgwFoAU
CgFnv95PZGW88VeImR7q4L6x3dAwDAYDVR0TAQH/BAIwADAOBgNVHQ8BAf8EBAMC
B4AwFgYDVR0lAQH/BAwwCgYIKwYBBQUHAwMwDQYJKoZIhvcNAQELBQADggIBAIVd
UkudHUOtSbN4DXXp1TQH8NUlOlXNoXoQ563aIpmn001ezww6C/DI9Zw71S+ixUZP
ZpXXiqhQl0gp6MhiI9Tanq0G4rUSvW9wz7DZlrEN9EWQWMALcSlpYkyLrWd2mih3
05lI0/uXNvyfAMekGSGMbIJiDdBzaKGaz3aCnnp/SLBwqZhKOkKWYWqb0Ud9DXQK
Gf/bCEh5+XAKNT/BlXAyERy8Y1D6o08KUiumlWb7bQVnyaHpFFug0QEwinvl87X6
YvVE0jwE+chs5AuRQQrfoXbB8A1bQhD1gmK+HVlBNu2Ogf274UxwU4dRE1d62BcJ
wSDkItxNZzGRAZ3wmLioBpLbwctTNOAa5wMgUAWuCQ/CC76WSTBV1noPlLaGd8xY
1vDpvlbWXAv+dkEa0OXxg2/Ks8Jvc8z1BMJ1KhrKvRoOv2t9H10IXzRLMijjZ9Py
qc6WyhkXFH82efQ1jhk1q+Cb5GukR0EkoSAPNYThHqG8L4jFJgR9deM8aDpomqol
zXA1zpkuH/yCcu2SgidT1t11nEd1VlLYzJPlBIUf/qDBXjsvDrgASO0ajl0XM0nE
qhIls9JR6/5NRvT/lO9pEynptkXDGoUJJxWZKs9L+6v1bRtI0Q0XPYnx9OspkwE9
MbHXGGRh7f1VFnB6xrp36sKdwAWWoLlVotEgIbYE
-----END CERTIFICATE-----
