Certificate:
    Data:
        Version: 3 (0x2)
        Serial Number:
            1f:1a:50:ba:a7:b6:03:a5:e9:60:b9:45:e2:b1:4c:fa:3c:fc:9c:d7
        Signature Algorithm: sha256WithRSAEncryption
        Issuer: CN = Testing CA
        Validity
            Not Before: Jan 15 18:27:24 2019 GMT
            Not After : Jan 12 18:27:24 2029 GMT
        Subject: CN = Testing certificate for SWID tag signing
        Subject Public Key Info:
            Public Key Algorithm: rsaEncryption
                RSA Public-Key: (4096 bit)
                Modulus:
                    00:f0:53:1c:aa:8c:8c:61:97:af:08:18:9f:d6:48:
                    f3:22:79:76:ff:bb:0f:71:aa:10:a8:39:33:6e:a9:
                    f4:4d:f1:11:e8:54:96:92:e3:86:32:9a:f8:52:e4:
                    f8:65:4a:4e:71:1c:7e:a9:a0:73:4f:5e:b1:f2:32:
                    3a:c9:0c:6d:ef:1a:2d:a4:9f:4b:13:82:a0:b8:34:
                    b1:d1:ec:16:f2:d6:87:87:8b:17:53:ba:7a:60:5f:
                    e1:88:aa:75:2d:56:64:88:98:c7:e5:9e:f4:0a:78:
                    c7:f8:8a:12:eb:95:7d:30:10:06:2e:7c:d2:80:8c:
                    64:ff:ad:eb:67:c9:5e:27:a9:58:23:d7:6e:56:5f:
                    56:e4:63:f4:a4:44:e5:b6:d5:87:81:bb:72:a4:3c:
                    8f:15:8c:d5:ad:77:7b:13:e0:8b:f5:89:cd:d7:6f:
                    57:62:53:7a:59:f9:20:80:bc:2f:9e:bd:54:64:06:
                    10:7c:af:10:3d:e9:dd:aa:ca:91:18:68:a9:fe:cc:
                    4e:70:37:5a:fc:f2:6b:11:92:5d:0a:8d:61:6f:06:
                    4f:33:a7:03:55:54:15:df:29:a9:f4:20:fa:8d:45:
                    9d:a8:2b:c9:7f:d3:e4:09:a5:92:45:a7:35:d1:d2:
                    c4:79:6e:83:09:04:08:f8:fc:23:c4:43:a6:e7:c7:
                    5e:6c:00:9d:f7:d6:57:01:84:26:8e:e1:cd:5f:85:
                    3d:d5:34:40:90:67:0a:5e:6c:df:94:3f:eb:af:cc:
                    57:92:03:a0:24:25:2f:25:3d:f3:8c:59:d9:27:14:
                    37:bb:f9:ed:a0:8d:31:b6:69:1d:0a:1f:0d:75:1e:
                    f6:54:fb:97:54:50:c6:62:28:2c:96:70:5a:bd:38:
                    71:a4:e7:27:dc:00:f7:ec:5a:3f:2f:30:a4:32:4d:
                    69:e7:92:46:8a:61:6d:29:5d:b9:68:68:d5:8a:92:
                    f2:83:51:58:43:7f:76:a1:85:53:17:b2:9a:b1:a7:
                    9c:f0:b2:c1:a7:9e:ad:1d:95:fc:02:84:a7:a0:48:
                    70:6b:a9:fb:c4:25:9f:2b:89:3c:d5:e2:32:86:3d:
                    51:ab:37:69:2b:fd:7b:5a:72:35:db:55:b4:37:54:
                    0a:7f:db:d9:a4:19:d8:53:af:c8:26:42:e9:e0:08:
                    fd:30:b4:e7:a3:2f:2c:3a:c5:6d:56:6f:34:6b:9f:
                    f9:58:db:c6:50:c6:6a:e1:77:74:f6:fe:c8:68:d9:
                    0a:7f:04:e0:d5:d3:6f:43:41:0b:f7:da:4f:c2:be:
                    8d:36:f2:0e:31:36:bb:bb:39:e4:de:b8:42:d0:b3:
                    77:e2:2c:3d:c1:42:56:d9:76:97:03:1d:76:7b:58:
                    c9:44:dd
                Exponent: 65537 (0x10001)
        X509v3 extensions:
            X509v3 Subject Key Identifier: 
                D6:D2:11:68:B9:67:FE:16:29:9E:C8:B0:08:40:F5:21:8D:0E:93:F3
            X509v3 Authority Key Identifier: 
                keyid:59:2A:56:DF:88:89:2E:E0:FA:37:04:90:D5:9E:8C:64:47:52:82:C1

            X509v3 Basic Constraints: critical
                CA:FALSE
            X509v3 Key Usage: critical
                Digital Signature
            X509v3 Extended Key Usage: critical
                Code Signing
    Signature Algorithm: sha256WithRSAEncryption
         7f:fd:6b:72:8f:47:57:78:e1:ee:6c:5f:59:82:c0:fe:47:2f:
         8e:64:ab:35:72:7b:bb:f6:50:30:45:83:53:7a:dc:87:25:ef:
         29:70:48:1c:12:8a:8a:e9:ab:85:e7:27:f1:7b:a8:00:e0:4f:
         3c:63:4c:e7:97:0c:13:86:02:dc:67:b6:80:34:c2:2f:fa:1a:
         d1:b6:be:76:0a:22:f2:50:c1:f0:50:af:a1:77:89:5f:c5:bd:
         b4:c9:3e:1c:51:f9:19:c1:d8:65:b7:2d:79:bd:fd:f5:bb:3b:
         a9:61:24:f6:95:27:be:39:ca:cd:13:32:60:0f:17:bf:af:95:
         f1:28:ac:a6:56:1d:3e:a3:e4:52:47:f8:dc:6e:fc:42:57:b1:
         a3:5f:22:0f:76:09:1b:c7:f8:4f:17:9e:1c:d4:5c:41:a5:a3:
         a7:66:b7:fc:66:31:5f:b5:e2:5a:dd:7f:17:b8:b0:e0:39:f2:
         59:cd:a6:dd:35:a0:d5:d3:8e:ed:41:2f:8b:0a:59:5c:8f:52:
         e7:7d:01:e7:24:61:3a:eb:1e:9b:42:ec:bb:0d:c3:f3:08:57:
         d1:ab:3c:11:33:cb:87:9a:9e:1b:68:68:09:8e:74:7c:70:52:
         d8:ba:9f:7d:e8:16:2f:f2:52:a5:58:3f:55:75:7e:34:9c:a6:
         eb:16:f5:e1:3f:65:a5:df:62:b8:22:81:76:0e:86:97:63:0e:
         10:77:5e:3c:24:a8:0b:a0:08:f5:e1:cc:19:58:f4:68:8f:bf:
         af:d9:4f:10:c6:0b:32:60:84:c6:7a:e1:a8:16:d8:8b:af:86:
         95:8a:7e:aa:05:86:69:7e:37:8b:e5:46:93:4d:3b:03:d1:47:
         2c:13:8c:27:6c:f2:18:35:57:8b:cc:9a:4a:49:b3:0d:4d:68:
         5f:6f:1f:c1:0c:04:31:d3:43:d7:06:67:79:b0:6a:d7:7c:17:
         58:7d:46:b1:c7:76:05:a7:28:63:ab:ed:4e:97:7a:5f:54:bc:
         8f:18:19:dd:c9:de:c3:bf:a0:c6:e7:99:c1:4e:fd:71:22:23:
         43:d6:f0:c9:ce:01:e8:94:57:9e:3e:22:24:86:fc:a4:40:4c:
         5e:9e:02:2b:f7:94:61:d2:43:28:9d:f0:c7:dd:13:f5:3e:52:
         e4:70:33:49:4d:1d:b1:12:39:74:ed:7c:5f:ab:53:b9:5d:50:
         bb:78:59:09:46:33:da:06:be:42:9f:cd:7d:ed:92:ee:53:24:
         9c:28:d5:16:83:f4:79:f3:72:7e:f2:67:c0:de:99:d5:01:45:
         69:b2:7c:b8:1f:8f:e9:e5:19:39:77:7a:78:67:3f:f2:b1:88:
         ee:25:d4:9d:b7:f6:58:85
-----BEGIN CERTIFICATE-----
MIIFTjCCAzagAwIBAgIUHxpQuqe2A6XpYLlF4rFM+jz8nNcwDQYJKoZIhvcNAQEL
BQAwFTETMBEGA1UEAwwKVGVzdGluZyBDQTAeFw0xOTAxMTUxODI3MjRaFw0yOTAx
MTIxODI3MjRaMDMxMTAvBgNVBAMMKFRlc3RpbmcgY2VydGlmaWNhdGUgZm9yIFNX
SUQgdGFnIHNpZ25pbmcwggIiMA0GCSqGSIb3DQEBAQUAA4ICDwAwggIKAoICAQDw
UxyqjIxhl68IGJ/WSPMieXb/uw9xqhCoOTNuqfRN8RHoVJaS44YymvhS5PhlSk5x
HH6poHNPXrHyMjrJDG3vGi2kn0sTgqC4NLHR7Bby1oeHixdTunpgX+GIqnUtVmSI
mMflnvQKeMf4ihLrlX0wEAYufNKAjGT/retnyV4nqVgj125WX1bkY/SkROW21YeB
u3KkPI8VjNWtd3sT4Iv1ic3Xb1diU3pZ+SCAvC+evVRkBhB8rxA96d2qypEYaKn+
zE5wN1r88msRkl0KjWFvBk8zpwNVVBXfKan0IPqNRZ2oK8l/0+QJpZJFpzXR0sR5
boMJBAj4/CPEQ6bnx15sAJ331lcBhCaO4c1fhT3VNECQZwpebN+UP+uvzFeSA6Ak
JS8lPfOMWdknFDe7+e2gjTG2aR0KHw11HvZU+5dUUMZiKCyWcFq9OHGk5yfcAPfs
Wj8vMKQyTWnnkkaKYW0pXbloaNWKkvKDUVhDf3ahhVMXspqxp5zwssGnnq0dlfwC
hKegSHBrqfvEJZ8riTzV4jKGPVGrN2kr/XtacjXbVbQ3VAp/29mkGdhTr8gmQung
CP0wtOejLyw6xW1WbzRrn/lY28ZQxmrhd3T2/sho2Qp/BODV029DQQv32k/Cvo02
8g4xNru7OeTeuELQs3fiLD3BQlbZdpcDHXZ7WMlE3QIDAQABo3gwdjAdBgNVHQ4E
FgQU1tIRaLln/hYpnsiwCED1IY0Ok/MwHwYDVR0jBBgwFoAUWSpW34iJLuD6NwSQ
1Z6MZEdSgsEwDAYDVR0TAQH/BAIwADAOBgNVHQ8BAf8EBAMCB4AwFgYDVR0lAQH/
BAwwCgYIKwYBBQUHAwMwDQYJKoZIhvcNAQELBQADggIBAH/9a3KPR1d44e5sX1mC
wP5HL45kqzVye7v2UDBFg1N63Icl7ylwSBwSiorpq4XnJ/F7qADgTzxjTOeXDBOG
AtxntoA0wi/6GtG2vnYKIvJQwfBQr6F3iV/FvbTJPhxR+RnB2GW3LXm9/fW7O6lh
JPaVJ745ys0TMmAPF7+vlfEorKZWHT6j5FJH+Nxu/EJXsaNfIg92CRvH+E8XnhzU
XEGlo6dmt/xmMV+14lrdfxe4sOA58lnNpt01oNXTju1BL4sKWVyPUud9AeckYTrr
HptC7LsNw/MIV9GrPBEzy4eanhtoaAmOdHxwUti6n33oFi/yUqVYP1V1fjScpusW
9eE/ZaXfYrgigXYOhpdjDhB3XjwkqAugCPXhzBlY9GiPv6/ZTxDGCzJghMZ64agW
2IuvhpWKfqoFhml+N4vlRpNNOwPRRywTjCds8hg1V4vMmkpJsw1NaF9vH8EMBDHT
Q9cGZ3mwatd8F1h9RrHHdgWnKGOr7U6Xel9UvI8YGd3J3sO/oMbnmcFO/XEiI0PW
8MnOAeiUV54+IiSG/KRATF6eAiv3lGHSQyid8MfdE/U+UuRwM0lNHbESOXTtfF+r
U7ldULt4WQlGM9oGvkKfzX3tku5TJJwo1RaD9Hnzcn7yZ8DemdUBRWmyfLgfj+nl
GTl3enhnP/KxiO4l1J239liF
-----END CERTIFICATE-----
